; ModuleID = 'bench/ncnn/original/blob.ll'
source_filename = "bench/ncnn/original/blob.ll"
target datalayout = "e-m:e-p270:32:32-p271:32:32-p272:64:64-i64:64-i128:128-f80:128-n8:16:32:64-S128"
target triple = "x86_64-pc-linux-gnu"

@_ZN4ncnn4BlobC1Ev = hidden unnamed_addr alias void (ptr), ptr @_ZN4ncnn4BlobC2Ev

; Function Attrs: mustprogress nofree norecurse nosync nounwind willreturn memory(argmem: write) uwtable
define hidden void @_ZN4ncnn4BlobC2Ev(ptr noundef nonnull align 8 dereferenceable(112) %0) unnamed_addr #0 align 2 personality ptr @__gxx_personality_v0 {
  %2 = getelementptr inbounds nuw i8, ptr %0, i64 16
  store ptr %2, ptr %0, align 8, !tbaa !4
  %3 = getelementptr inbounds nuw i8, ptr %0, i64 8
  store i64 0, ptr %3, align 8, !tbaa !10
  store i8 0, ptr %2, align 8, !tbaa !13
  %4 = getelementptr inbounds nuw i8, ptr %0, i64 40
  %5 = getelementptr inbounds nuw i8, ptr %0, i64 72
  %6 = getelementptr inbounds nuw i8, ptr %0, i64 104
  store i64 0, ptr %6, align 8, !tbaa !14
  %7 = getelementptr inbounds nuw i8, ptr %0, i64 32
  tail call void @llvm.memset.p0.i64(ptr noundef nonnull align 8 dereferenceable(28) %4, i8 0, i64 28, i1 false)
  tail call void @llvm.memset.p0.i64(ptr noundef nonnull align 8 dereferenceable(28) %5, i8 0, i64 28, i1 false)
  store i32 -1, ptr %7, align 8, !tbaa !19
  %8 = getelementptr inbounds nuw i8, ptr %0, i64 36
  store i32 -1, ptr %8, align 4, !tbaa !21
  ret void
}

declare i32 @__gxx_personality_v0(...)

; Function Attrs: nocallback nofree nounwind willreturn memory(argmem: write)
declare void @llvm.memset.p0.i64(ptr writeonly captures(none), i8, i64, i1 immarg) #1


!llvm.module.flags = !{!0, !1, !2, !3}

!0 = !{i32 1, !"wchar_size", i32 4}
!1 = !{i32 7, !"openmp", i32 51}
!2 = !{i32 8, !"PIC Level", i32 2}
!3 = !{i32 7, !"uwtable", i32 2}
!4 = !{!5, !6, i64 0}
!5 = !{!"_ZTSNSt7__cxx1112basic_stringIcSt11char_traitsIcESaIcEE12_Alloc_hiderE", !6, i64 0}
!6 = !{!"p1 omnipotent char", !7, i64 0}
!7 = !{!"any pointer", !8, i64 0}
!8 = !{!"omnipotent char", !9, i64 0}
!9 = !{!"Simple C++ TBAA"}
!10 = !{!11, !12, i64 8}
!11 = !{!"_ZTSNSt7__cxx1112basic_stringIcSt11char_traitsIcESaIcEEE", !5, i64 0, !12, i64 8, !8, i64 16}
!12 = !{!"long", !8, i64 0}
!13 = !{!8, !8, i64 0}
!14 = !{!15, !12, i64 64}
!15 = !{!"_ZTSN4ncnn3MatE", !7, i64 0, !16, i64 8, !12, i64 16, !17, i64 24, !18, i64 32, !17, i64 40, !17, i64 44, !17, i64 48, !17, i64 52, !17, i64 56, !12, i64 64}
!16 = !{!"p1 int", !7, i64 0}
!17 = !{!"int", !8, i64 0}
!18 = !{!"p1 _ZTSN4ncnn9AllocatorE", !7, i64 0}
!19 = !{!20, !17, i64 32}
!20 = !{!"_ZTSN4ncnn4BlobE", !11, i64 0, !17, i64 32, !17, i64 36, !15, i64 40}
!21 = !{!20, !17, i64 36}
